target datalayout = "e-m:e-p270:32:32-p271:32:32-p272:64:64-i64:64-i128:128-f80:128-n8:16:32:64-S128"
target triple = "x86_64-pc-linux-gnu"

@.str.206 = private unnamed_addr constant [5 x i8] c"PATH\00", align 1
@.str.207 = private unnamed_addr constant [14 x i8] c"/bin:/usr/bin\00", align 1

; Function Attrs: nounwind uwtable
define internal i32 @my_execvpe(ptr noundef %0, ptr noundef %1, ptr noundef %2) #0 {
  %4 = alloca i32, align 4
  %5 = alloca ptr, align 8
  %6 = alloca ptr, align 8
  %7 = alloca ptr, align 8
  %8 = alloca ptr, align 8
  %9 = alloca ptr, align 8
  %10 = alloca ptr, align 8
  %11 = alloca ptr, align 8
  %12 = alloca [4096 x i8], align 16
  %13 = alloca i64, align 8
  %14 = alloca i64, align 8
  %15 = alloca i32, align 4
  store ptr %0, ptr %5, align 8
  store ptr %1, ptr %6, align 8
  store ptr %2, ptr %7, align 8
  %16 = load ptr, ptr %5, align 8
  %17 = call i64 @strlen(ptr noundef %16) #13
  store i64 %17, ptr %13, align 8
  %18 = load i64, ptr %13, align 8
  %19 = icmp eq i64 %18, 0
  br i1 %19, label %20, label %22

20:                                               ; preds = %3
  %21 = call ptr @__errno_location() #10
  store i32 2, ptr %21, align 4
  store i32 -1, ptr %4, align 4
  br label %101

22:                                               ; preds = %3
  %23 = load ptr, ptr %5, align 8
  %24 = call ptr @strchr(ptr noundef %23, i32 noundef 47) #13
  %25 = icmp ne ptr %24, null
  br i1 %25, label %26, label %31

26:                                               ; preds = %22
  %27 = load ptr, ptr %5, align 8
  %28 = load ptr, ptr %6, align 8
  %29 = load ptr, ptr %7, align 8
  %30 = call i32 @execve(ptr noundef %27, ptr noundef %28, ptr noundef %29) #12
  store i32 %30, ptr %4, align 4
  br label %101

31:                                               ; preds = %22
  %32 = call ptr @getenv(ptr noundef @.str.206) #12
  store ptr %32, ptr %8, align 8
  %33 = load ptr, ptr %8, align 8
  %34 = icmp ne ptr %33, null
  br i1 %34, label %36, label %35

35:                                               ; preds = %31
  store ptr @.str.207, ptr %8, align 8
  br label %36

36:                                               ; preds = %35, %31
  store i32 0, ptr %15, align 4
  %37 = load ptr, ptr %8, align 8
  store ptr %37, ptr %9, align 8
  %38 = load ptr, ptr %8, align 8
  store ptr %38, ptr %9, align 8
  br label %39

39:                                               ; preds = %93, %36
  %40 = load ptr, ptr %9, align 8
  %41 = icmp ne ptr %40, null
  br i1 %41, label %42, label %95

42:                                               ; preds = %39
  %43 = load ptr, ptr %9, align 8
  %44 = call ptr @strchr(ptr noundef %43, i32 noundef 58) #13
  store ptr %44, ptr %11, align 8
  %45 = load ptr, ptr %11, align 8
  %46 = icmp ne ptr %45, null
  br i1 %46, label %50, label %47

47:                                               ; preds = %42
  store ptr null, ptr %10, align 8
  %48 = load ptr, ptr %9, align 8
  %49 = call i64 @strlen(ptr noundef %48) #13
  store i64 %49, ptr %14, align 8
  br label %58

50:                                               ; preds = %42
  %51 = load ptr, ptr %11, align 8
  %52 = getelementptr i8, ptr %51, i64 1
  store ptr %52, ptr %10, align 8
  %53 = load ptr, ptr %11, align 8
  %54 = load ptr, ptr %9, align 8
  %55 = ptrtoint ptr %53 to i64
  %56 = ptrtoint ptr %54 to i64
  %57 = sub i64 %55, %56
  store i64 %57, ptr %14, align 8
  br label %58

58:                                               ; preds = %50, %47
  %59 = load i64, ptr %14, align 8
  %60 = add i64 %59, 1
  %61 = load i64, ptr %13, align 8
  %62 = add i64 %60, %61
  %63 = add i64 %62, 1
  %64 = icmp ugt i64 %63, 4096
  br i1 %64, label %65, label %66

65:                                               ; preds = %58
  br label %93

66:                                               ; preds = %58
  %67 = getelementptr inbounds [4096 x i8], ptr %12, i64 0, i64 0
  %68 = load ptr, ptr %9, align 8
  %69 = load i64, ptr %14, align 8
  call void @llvm.memcpy.p0.p0.i64(ptr align 16 %67, ptr align 1 %68, i64 %69, i1 false)
  %70 = load i64, ptr %14, align 8
  %71 = getelementptr [4096 x i8], ptr %12, i64 0, i64 %70
  store i8 47, ptr %71, align 1
  %72 = getelementptr inbounds [4096 x i8], ptr %12, i64 0, i64 0
  %73 = load i64, ptr %14, align 8
  %74 = getelementptr i8, ptr %72, i64 %73
  %75 = getelementptr i8, ptr %74, i64 1
  %76 = load ptr, ptr %5, align 8
  %77 = load i64, ptr %13, align 8
  call void @llvm.memcpy.p0.p0.i64(ptr align 1 %75, ptr align 1 %76, i64 %77, i1 false)
  %78 = load i64, ptr %14, align 8
  %79 = add i64 %78, 1
  %80 = load i64, ptr %13, align 8
  %81 = add i64 %79, %80
  %82 = getelementptr [4096 x i8], ptr %12, i64 0, i64 %81
  store i8 0, ptr %82, align 1
  %83 = getelementptr inbounds [4096 x i8], ptr %12, i64 0, i64 0
  %84 = load ptr, ptr %6, align 8
  %85 = load ptr, ptr %7, align 8
  %86 = call i32 @execve(ptr noundef %83, ptr noundef %84, ptr noundef %85) #12
  %87 = call ptr @__errno_location() #10
  %88 = load i32, ptr %87, align 4
  switch i32 %88, label %91 [
    i32 13, label %89
    i32 2, label %90
    i32 20, label %90
  ]

89:                                               ; preds = %66
  store i32 1, ptr %15, align 4
  br label %92

90:                                               ; preds = %66, %66
  br label %92

91:                                               ; preds = %66
  store i32 -1, ptr %4, align 4
  br label %101

92:                                               ; preds = %90, %89
  br label %93

93:                                               ; preds = %92, %65
  %94 = load ptr, ptr %10, align 8
  store ptr %94, ptr %9, align 8
  br label %39, !llvm.loop !48

95:                                               ; preds = %39
  %96 = load i32, ptr %15, align 4
  %97 = icmp ne i32 %96, 0
  br i1 %97, label %98, label %100

98:                                               ; preds = %95
  %99 = call ptr @__errno_location() #10
  store i32 13, ptr %99, align 4
  br label %100

100:                                              ; preds = %98, %95
  store i32 -1, ptr %4, align 4
  br label %101

101:                                              ; preds = %100, %91, %26, %20
  %102 = load i32, ptr %4, align 4
  ret i32 %102
}