; Function Attrs: nofree nounwind uwtable
define internal fastcc void @my_execvpe(ptr noundef %0, ptr noundef %1, ptr noundef %2) unnamed_addr #24 {
  %4 = alloca [4096 x i8], align 16
  %5 = tail call i64 @strlen(ptr noundef nonnull dereferenceable(1) %0) #31
  %6 = icmp eq i64 %5, 0
  br i1 %6, label %7, label %9

7:                                                ; preds = %3
  %8 = tail call ptr @__errno_location() #28
  store i32 2, ptr %8, align 4
  br label %.loopexit

9:                                                ; preds = %3
  %10 = tail call ptr @strchr(ptr noundef nonnull dereferenceable(1) %0, i32 noundef 47) #31
  %.not = icmp eq ptr %10, null
  br i1 %.not, label %13, label %11

11:                                               ; preds = %9
  %12 = tail call i32 @execve(ptr noundef %0, ptr noundef %1, ptr noundef %2) #29
  br label %.loopexit

13:                                               ; preds = %9
  %14 = tail call ptr @getenv(ptr noundef nonnull @.str.206) #29
  %.not36 = icmp eq ptr %14, null
  %spec.select = select i1 %.not36, ptr @.str.207, ptr %14
  %15 = add i64 %5, 1
  %invariant.gep = getelementptr inbounds i8, ptr %4, i64 1
  br label %.outer

.outer:                                           ; preds = %select.unfold.thread, %13
  %.not38 = phi i1 [ false, %select.unfold.thread ], [ true, %13 ]
  %.03241.ph = phi ptr [ %.033, %select.unfold.thread ], [ %spec.select, %13 ]
  br label %16

16:                                               ; preds = %.outer, %select.unfold
  %.03241 = phi ptr [ %.033, %select.unfold ], [ %.03241.ph, %.outer ]
  %17 = call ptr @strchr(ptr noundef nonnull dereferenceable(1) %.03241, i32 noundef 58) #31
  %.not39 = icmp eq ptr %17, null
  br i1 %.not39, label %18, label %20

18:                                               ; preds = %16
  %19 = call i64 @strlen(ptr noundef nonnull dereferenceable(1) %.03241) #31
  br label %25

20:                                               ; preds = %16
  %21 = getelementptr i8, ptr %17, i64 1
  %22 = ptrtoint ptr %17 to i64
  %23 = ptrtoint ptr %.03241 to i64
  %24 = sub i64 %22, %23
  br label %25

25:                                               ; preds = %20, %18
  %.033 = phi ptr [ %21, %20 ], [ null, %18 ]
  %.030 = phi i64 [ %24, %20 ], [ %19, %18 ]
  %26 = add i64 %15, %.030
  %27 = add i64 %26, -4096
  %28 = icmp ult i64 %27, -4097
  br i1 %28, label %select.unfold, label %29

29:                                               ; preds = %25
  call void @llvm.memcpy.p0.p0.i64(ptr nonnull align 16 %4, ptr nonnull align 1 %.03241, i64 %.030, i1 false)
  %30 = getelementptr [4096 x i8], ptr %4, i64 0, i64 %.030
  store i8 47, ptr %30, align 1
  %gep = getelementptr i8, ptr %invariant.gep, i64 %.030
  call void @llvm.memcpy.p0.p0.i64(ptr align 1 %gep, ptr align 1 %0, i64 %5, i1 false)
  %31 = getelementptr [4096 x i8], ptr %4, i64 0, i64 %26
  store i8 0, ptr %31, align 1
  %32 = call i32 @execve(ptr noundef nonnull %4, ptr noundef %1, ptr noundef %2) #29
  %33 = tail call ptr @__errno_location() #28
  %34 = load i32, ptr %33, align 4
  switch i32 %34, label %.loopexit [
    i32 13, label %select.unfold.thread
    i32 2, label %select.unfold
    i32 20, label %select.unfold
  ]

select.unfold:                                    ; preds = %29, %29, %25
  %.not37 = icmp eq ptr %.033, null
  br i1 %.not37, label %35, label %16, !llvm.loop !48

select.unfold.thread:                             ; preds = %29
  %.not3744 = icmp eq ptr %.033, null
  br i1 %.not3744, label %.thread, label %.outer, !llvm.loop !48

35:                                               ; preds = %select.unfold
  br i1 %.not38, label %.loopexit, label %.thread

.thread:                                          ; preds = %select.unfold.thread, %35
  %36 = tail call ptr @__errno_location() #28
  store i32 13, ptr %36, align 4
  br label %.loopexit

.loopexit:                                        ; preds = %29, %35, %.thread, %11, %7
  ret void
}